target datalayout = "e-m:e-p270:32:32-p271:32:32-p272:64:64-i64:64-i128:128-f80:128-n8:16:32:64-S128"
target triple = "x86_64-pc-linux-gnu"

%struct.bignum_st = type { ptr, i32, i32, i32, i32 }

; Function Attrs: nounwind uwtable
define hidden void @BN_set_negative(ptr noundef %0, i32 noundef %1) #0 {
  %3 = alloca ptr, align 8
  %4 = alloca i32, align 4
  store ptr %0, ptr %3, align 8, !tbaa !6
  store i32 %1, ptr %4, align 4, !tbaa !23
  %5 = load i32, ptr %4, align 4, !tbaa !23
  %6 = icmp ne i32 %5, 0
  br i1 %6, label %7, label %14

7:                                                ; preds = %2
  %8 = load ptr, ptr %3, align 8, !tbaa !6
  %9 = call i32 @BN_is_zero(ptr noundef %8)
  %10 = icmp ne i32 %9, 0
  br i1 %10, label %14, label %11

11:                                               ; preds = %7
  %12 = load ptr, ptr %3, align 8, !tbaa !6
  %13 = getelementptr inbounds nuw %struct.bignum_st, ptr %12, i32 0, i32 3
  store i32 1, ptr %13, align 8, !tbaa !19
  br label %17

14:                                               ; preds = %7, %2
  %15 = load ptr, ptr %3, align 8, !tbaa !6
  %16 = getelementptr inbounds nuw %struct.bignum_st, ptr %15, i32 0, i32 3
  store i32 0, ptr %16, align 8, !tbaa !19
  br label %17

17:                                               ; preds = %14, %11
  ret void
}