; Function Attrs: nounwind uwtable
define hidden void @BN_set_negative(ptr noundef %0, i32 noundef %1) local_unnamed_addr #0 {
  %.not = icmp eq i32 %1, 0
  br i1 %.not, label %5, label %3

3:                                                ; preds = %2
  %4 = tail call i32 @BN_is_zero(ptr noundef %0) #14
  %.not3 = icmp eq i32 %4, 0
  br i1 %.not3, label %6, label %5

5:                                                ; preds = %3, %2
  br label %6

6:                                                ; preds = %3, %5
  %.sink = phi i32 [ 0, %5 ], [ 1, %3 ]
  %7 = getelementptr inbounds nuw i8, ptr %0, i64 16
  store i32 %.sink, ptr %7, align 8, !tbaa !16
  ret void
}